; Function Attrs: mustprogress noinline uwtable
define internal fastcc noundef nonnull align 8 dereferenceable(16) ptr @_ZN4absl12lts_2024072212log_internal10LogMessagelsIPN17grpc_event_engine12experimental12_GLOBAL__N_126EventEngineEndpointWrapperETnNSt9enable_ifIXntsr4absl16HasAbslStringifyIT_EE5valueEiE4typeELi0EEERS2_RKSA_(ptr noundef nonnull readonly returned align 8 dereferenceable(16) %0, ptr noundef nonnull readonly align 8 captures(none) dereferenceable(8) %1) unnamed_addr #12 align 2 personality ptr @__gxx_personality_v0 {
  %3 = alloca %"class.absl::lts_20240722::log_internal::LogMessage::OstreamView", align 8
  call void @llvm.lifetime.start.p0(i64 120, ptr nonnull %3) #28
  %4 = getelementptr inbounds nuw i8, ptr %0, i64 8
  %5 = load ptr, ptr %4, align 8, !tbaa !72
  call void @_ZN4absl12lts_2024072212log_internal10LogMessage11OstreamViewC1ERNS2_14LogMessageDataE(ptr noundef nonnull align 8 dereferenceable(120) %3, ptr noundef nonnull align 1 %5)
  %6 = invoke noundef nonnull align 8 dereferenceable(8) ptr @_ZN4absl12lts_2024072212log_internal10LogMessage11OstreamView6streamEv(ptr noundef nonnull align 8 dereferenceable(120) %3)
          to label %7 unwind label %10

7:                                                ; preds = %2
  %8 = load ptr, ptr %1, align 8, !tbaa !74
  %9 = invoke noundef nonnull align 8 dereferenceable(8) ptr @_ZNSo9_M_insertIPKvEERSoT_(ptr noundef nonnull align 8 dereferenceable(8) %6, ptr noundef %8)
          to label %_ZNSolsEPKv.exit unwind label %10

_ZNSolsEPKv.exit:                                 ; preds = %7
  call void @_ZN4absl12lts_2024072212log_internal10LogMessage11OstreamViewD1Ev(ptr noundef nonnull align 8 dereferenceable(120) %3) #28
  call void @llvm.lifetime.end.p0(i64 120, ptr nonnull %3) #28
  ret ptr %0

10:                                               ; preds = %7, %2
  %11 = landingpad { ptr, i32 }
          cleanup
  call void @_ZN4absl12lts_2024072212log_internal10LogMessage11OstreamViewD1Ev(ptr noundef nonnull align 8 dereferenceable(120) %3) #28
  call void @llvm.lifetime.end.p0(i64 120, ptr nonnull %3) #28
  resume { ptr, i32 } %11
}